; ModuleID = '29/1682.c'
source_filename = "29/1682.c"
target datalayout = "e-m:e-p270:32:32-p271:32:32-p272:64:64-i64:64-f80:128-n8:16:32:64-S128"
target triple = "x86_64-pc-linux-gnu"

@.str = private unnamed_addr constant [4 x i8] c"%d\0A\00", align 1
@.str.1 = private unnamed_addr constant [6 x i8] c"%.3f\0A\00", align 1

; Function Attrs: noinline nounwind uwtable
define dso_local i32 @main() #0 {
  %1 = alloca i32, align 4
  %2 = alloca i32, align 4
  %3 = alloca i32, align 4
  %4 = alloca i32, align 4
  %5 = alloca i32, align 4
  %6 = alloca i32, align 4
  %7 = alloca i32, align 4
  %8 = alloca float, align 4
  store i32 0, i32* %1, align 4
  %9 = call i32 (i8*, ...) @__isoc99_scanf(i8* getelementptr inbounds ([4 x i8], [4 x i8]* @.str, i64 0, i64 0), i32* %5)
  store i32 1, i32* %4, align 4
  br label %10

10:                                               ; preds = %43, %0
  %11 = load i32, i32* %4, align 4
  %12 = load i32, i32* %5, align 4
  %13 = icmp sle i32 %11, %12
  br i1 %13, label %14, label %46

14:                                               ; preds = %10
  %15 = call i32 (i8*, ...) @__isoc99_scanf(i8* getelementptr inbounds ([4 x i8], [4 x i8]* @.str, i64 0, i64 0), i32* %3)
  store float 0.000000e+00, float* %8, align 4
  store i32 1, i32* %6, align 4
  store i32 1, i32* %7, align 4
  store i32 1, i32* %2, align 4
  br label %16

16:                                               ; preds = %36, %14
  %17 = load i32, i32* %2, align 4
  %18 = load i32, i32* %3, align 4
  %19 = icmp sle i32 %17, %18
  br i1 %19, label %20, label %39

20:                                               ; preds = %16
  %21 = load i32, i32* %6, align 4
  %22 = load i32, i32* %7, align 4
  %23 = add nsw i32 %21, %22
  store i32 %23, i32* %6, align 4
  %24 = load i32, i32* %6, align 4
  %25 = load i32, i32* %7, align 4
  %26 = sub nsw i32 %24, %25
  store i32 %26, i32* %7, align 4
  %27 = load float, float* %8, align 4
  %28 = fpext float %27 to double
  %29 = load i32, i32* %6, align 4
  %30 = sitofp i32 %29 to double
  %31 = load i32, i32* %7, align 4
  %32 = sitofp i32 %31 to double
  %33 = fdiv double %30, %32
  %34 = fadd double %28, %33
  %35 = fptrunc double %34 to float
  store float %35, float* %8, align 4
  br label %36

36:                                               ; preds = %20
  %37 = load i32, i32* %2, align 4
  %38 = add nsw i32 %37, 1
  store i32 %38, i32* %2, align 4
  br label %16

39:                                               ; preds = %16
  %40 = load float, float* %8, align 4
  %41 = fpext float %40 to double
  %42 = call i32 (i8*, ...) @printf(i8* getelementptr inbounds ([6 x i8], [6 x i8]* @.str.1, i64 0, i64 0), double %41)
  br label %43

43:                                               ; preds = %39
  %44 = load i32, i32* %4, align 4
  %45 = add nsw i32 %44, 1
  store i32 %45, i32* %4, align 4
  br label %10

46:                                               ; preds = %10
  ret i32 0
}

declare dso_local i32 @__isoc99_scanf(i8*, ...) #1

declare dso_local i32 @printf(i8*, ...) #1


!llvm.module.flags = !{!0}
!llvm.ident = !{!1}

!0 = !{i32 1, !"wchar_size", i32 4}
!1 = !{!"clang version 10.0.0-4ubuntu1 "}
